; Function Attrs: mustprogress nofree norecurse nosync nounwind sspstrong willreturn memory(argmem: readwrite) uwtable
define internal i64 @fun_so_cp5022x_encoder(ptr noundef captures(none) %0, ptr noundef readonly captures(none) %1, i64 noundef %2, ptr noundef %3, i64 %4) #4 {
  %6 = icmp eq i64 %2, 1
  br i1 %6, label %12, label %7

7:                                                ; preds = %5
  %8 = load i8, ptr %1, align 1, !tbaa !6
  %9 = icmp eq i8 %8, -114
  br i1 %9, label %10, label %12

10:                                               ; preds = %7
  %11 = getelementptr inbounds nuw i8, ptr %1, i64 1
  br label %12

12:                                               ; preds = %7, %5, %10
  %.018 = phi i1 [ true, %10 ], [ true, %5 ], [ false, %7 ]
  %.017 = phi ptr [ %11, %10 ], [ %1, %5 ], [ %1, %7 ]
  %.0 = phi i32 [ 3, %10 ], [ 0, %5 ], [ 2, %7 ]
  %13 = load i8, ptr %0, align 1, !tbaa !6
  %14 = zext i8 %13 to i32
  %.not.i = icmp eq i32 %.0, %14
  br i1 %.not.i, label %iso2022jp_put_state.exit, label %switch.lookup

switch.lookup:                                    ; preds = %12
  %15 = getelementptr inbounds nuw i8, ptr %3, i64 1
  store i8 27, ptr %3, align 1, !tbaa !6
  %16 = getelementptr inbounds nuw i8, ptr %3, i64 2
  %switch.shiftamt = shl nuw nsw i32 %.0, 3
  %switch.downshift = lshr i32 673457192, %switch.shiftamt
  %switch.masked = trunc i32 %switch.downshift to i8
  %switch.shiftamt21 = shl nuw nsw i32 %.0, 3
  %switch.downshift22 = lshr i32 1229078594, %switch.shiftamt21
  %switch.masked23 = trunc i32 %switch.downshift22 to i8
  store i8 %switch.masked, ptr %15, align 1, !tbaa !6
  store i8 %switch.masked23, ptr %16, align 1, !tbaa !6
  %.1.i = getelementptr inbounds nuw i8, ptr %3, i64 3
  %17 = trunc nuw nsw i32 %.0 to i8
  store i8 %17, ptr %0, align 1, !tbaa !6
  br label %iso2022jp_put_state.exit

iso2022jp_put_state.exit:                         ; preds = %12, %switch.lookup
  %.0.i = phi ptr [ %.1.i, %switch.lookup ], [ %3, %12 ]
  %18 = load i8, ptr %.017, align 1, !tbaa !6
  %19 = and i8 %18, 127
  %20 = getelementptr inbounds nuw i8, ptr %.0.i, i64 1
  store i8 %19, ptr %.0.i, align 1, !tbaa !6
  br i1 %.018, label %26, label %21

21:                                               ; preds = %iso2022jp_put_state.exit
  %22 = getelementptr inbounds nuw i8, ptr %.017, i64 1
  %23 = load i8, ptr %22, align 1, !tbaa !6
  %24 = and i8 %23, 127
  %25 = getelementptr inbounds nuw i8, ptr %.0.i, i64 2
  store i8 %24, ptr %20, align 1, !tbaa !6
  br label %26

26:                                               ; preds = %iso2022jp_put_state.exit, %21
  %.019 = phi ptr [ %25, %21 ], [ %20, %iso2022jp_put_state.exit ]
  %27 = ptrtoint ptr %.019 to i64
  %28 = ptrtoint ptr %3 to i64
  %29 = sub i64 %27, %28
  ret i64 %29
}